; Function Attrs: nounwind sspstrong uwtable
define internal range(i64 1, 512) i64 @rb_io_readbyte(i64 noundef %0) #0 {
  %2 = tail call i64 @rb_io_getbyte(i64 noundef %0)
  %3 = icmp eq i64 %2, 4
  br i1 %3, label %4, label %5

4:                                                ; preds = %1
  tail call void @rb_eof_error() #31
  unreachable

5:                                                ; preds = %1
  ret i64 %2
}